; Function Attrs: mustprogress nofree nounwind willreturn memory(write, argmem: readwrite, inaccessiblemem: none) uwtable
define void @_Z13strip_commentPc(ptr noundef %0) local_unnamed_addr #11 {
  %.not = icmp eq ptr %0, null
  br i1 %.not, label %5, label %2

2:                                                ; preds = %1
  %3 = tail call noundef ptr @strchr(ptr noundef nonnull dereferenceable(1) %0, i32 noundef 59) #24
  %.not4 = icmp eq ptr %3, null
  br i1 %.not4, label %5, label %4

4:                                                ; preds = %2
  store i8 0, ptr %3, align 1, !tbaa !4
  br label %5

5:                                                ; preds = %2, %4, %1
  ret void
}